target datalayout = "e-m:e-p270:32:32-p271:32:32-p272:64:64-i64:64-i128:128-f80:128-n8:16:32:64-S128"
target triple = "x86_64-unknown-linux-gnu"

%class.btTriangleCallback = type { ptr }
%class.btVector3 = type { [4 x float] }
%class.btTriangleConvexcastCallback = type <{ %class.btTriangleCallback, ptr, %class.btTransform, %class.btTransform, %class.btTransform, float, float, float, [4 x i8] }>
%class.btTransform = type { %class.btMatrix3x3, %class.btVector3 }
%class.btMatrix3x3 = type { [3 x %class.btVector3] }

@_ZTV18btTriangleCallback = external unnamed_addr constant { [5 x ptr] }, align 8

; Function Attrs: mustprogress nounwind uwtable
define linkonce_odr dso_local noundef nonnull align 4 dereferenceable(48) ptr @_ZN11btMatrix3x3aSERKS_(ptr noundef nonnull align 4 dereferenceable(48) %this, ptr noundef nonnull align 4 dereferenceable(48) %other) #1 comdat align 2 {
entry:
  %this.addr = alloca ptr, align 8
  %other.addr = alloca ptr, align 8
  store ptr %this, ptr %this.addr, align 8
  store ptr %other, ptr %other.addr, align 8
  %this1 = load ptr, ptr %this.addr, align 8
  %0 = load ptr, ptr %other.addr, align 8
  %m_el = getelementptr inbounds %class.btMatrix3x3, ptr %0, i32 0, i32 0
  %arrayidx = getelementptr inbounds [3 x %class.btVector3], ptr %m_el, i64 0, i64 0
  %m_el2 = getelementptr inbounds %class.btMatrix3x3, ptr %this1, i32 0, i32 0
  %arrayidx3 = getelementptr inbounds [3 x %class.btVector3], ptr %m_el2, i64 0, i64 0
  call void @llvm.memcpy.p0.p0.i64(ptr align 4 %arrayidx3, ptr align 4 %arrayidx, i64 16, i1 false)
  %1 = load ptr, ptr %other.addr, align 8
  %m_el4 = getelementptr inbounds %class.btMatrix3x3, ptr %1, i32 0, i32 0
  %arrayidx5 = getelementptr inbounds [3 x %class.btVector3], ptr %m_el4, i64 0, i64 1
  %m_el6 = getelementptr inbounds %class.btMatrix3x3, ptr %this1, i32 0, i32 0
  %arrayidx7 = getelementptr inbounds [3 x %class.btVector3], ptr %m_el6, i64 0, i64 1
  call void @llvm.memcpy.p0.p0.i64(ptr align 4 %arrayidx7, ptr align 4 %arrayidx5, i64 16, i1 false)
  %2 = load ptr, ptr %other.addr, align 8
  %m_el8 = getelementptr inbounds %class.btMatrix3x3, ptr %2, i32 0, i32 0
  %arrayidx9 = getelementptr inbounds [3 x %class.btVector3], ptr %m_el8, i64 0, i64 2
  %m_el10 = getelementptr inbounds %class.btMatrix3x3, ptr %this1, i32 0, i32 0
  %arrayidx11 = getelementptr inbounds [3 x %class.btVector3], ptr %m_el10, i64 0, i64 2
  call void @llvm.memcpy.p0.p0.i64(ptr align 4 %arrayidx11, ptr align 4 %arrayidx9, i64 16, i1 false)
  ret ptr %this1
}

; Function Attrs: mustprogress nounwind uwtable
define linkonce_odr dso_local void @_ZN9btVector3C2Ev(ptr noundef nonnull align 4 dereferenceable(16) %this) unnamed_addr #1 comdat align 2 {
entry:
  %this.addr = alloca ptr, align 8
  store ptr %this, ptr %this.addr, align 8
  ret void
}

; Function Attrs: mustprogress uwtable
define linkonce_odr dso_local void @_ZN11btMatrix3x3C2Ev(ptr noundef nonnull align 4 dereferenceable(48) %this) unnamed_addr #4 comdat align 2 {
entry:
  %this.addr = alloca ptr, align 8
  store ptr %this, ptr %this.addr, align 8
  %this1 = load ptr, ptr %this.addr, align 8
  %m_el = getelementptr inbounds %class.btMatrix3x3, ptr %this1, i32 0, i32 0
  %array.begin = getelementptr inbounds [3 x %class.btVector3], ptr %m_el, i32 0, i32 0
  %arrayctor.end = getelementptr inbounds %class.btVector3, ptr %array.begin, i64 3
  br label %arrayctor.loop

arrayctor.loop:                                   ; preds = %arrayctor.loop, %entry
  %arrayctor.cur = phi ptr [ %array.begin, %entry ], [ %arrayctor.next, %arrayctor.loop ]
  call void @_ZN9btVector3C2Ev(ptr noundef nonnull align 4 dereferenceable(16) %arrayctor.cur)
  %arrayctor.next = getelementptr inbounds %class.btVector3, ptr %arrayctor.cur, i64 1
  %arrayctor.done = icmp eq ptr %arrayctor.next, %arrayctor.end
  br i1 %arrayctor.done, label %arrayctor.cont, label %arrayctor.loop

arrayctor.cont:                                   ; preds = %arrayctor.loop
  ret void
}

; Function Attrs: mustprogress uwtable
define linkonce_odr dso_local noundef nonnull align 4 dereferenceable(64) ptr @_ZN11btTransformaSERKS_(ptr noundef nonnull align 4 dereferenceable(64) %this, ptr noundef nonnull align 4 dereferenceable(64) %other) #4 comdat align 2 {
entry:
  %this.addr = alloca ptr, align 8
  %other.addr = alloca ptr, align 8
  store ptr %this, ptr %this.addr, align 8
  store ptr %other, ptr %other.addr, align 8
  %this1 = load ptr, ptr %this.addr, align 8
  %0 = load ptr, ptr %other.addr, align 8
  %m_basis = getelementptr inbounds %class.btTransform, ptr %0, i32 0, i32 0
  %m_basis2 = getelementptr inbounds %class.btTransform, ptr %this1, i32 0, i32 0
  %call = call noundef nonnull align 4 dereferenceable(48) ptr @_ZN11btMatrix3x3aSERKS_(ptr noundef nonnull align 4 dereferenceable(48) %m_basis2, ptr noundef nonnull align 4 dereferenceable(48) %m_basis)
  %1 = load ptr, ptr %other.addr, align 8
  %m_origin = getelementptr inbounds %class.btTransform, ptr %1, i32 0, i32 1
  %m_origin3 = getelementptr inbounds %class.btTransform, ptr %this1, i32 0, i32 1
  call void @llvm.memcpy.p0.p0.i64(ptr align 4 %m_origin3, ptr align 4 %m_origin, i64 16, i1 false)
  ret ptr %this1
}

; Function Attrs: mustprogress uwtable
define linkonce_odr dso_local void @_ZN11btTransformC2Ev(ptr noundef nonnull align 4 dereferenceable(64) %this) unnamed_addr #4 comdat align 2 {
entry:
  %this.addr = alloca ptr, align 8
  store ptr %this, ptr %this.addr, align 8
  %this1 = load ptr, ptr %this.addr, align 8
  %m_basis = getelementptr inbounds %class.btTransform, ptr %this1, i32 0, i32 0
  call void @_ZN11btMatrix3x3C2Ev(ptr noundef nonnull align 4 dereferenceable(48) %m_basis)
  %m_origin = getelementptr inbounds %class.btTransform, ptr %this1, i32 0, i32 1
  call void @_ZN9btVector3C2Ev(ptr noundef nonnull align 4 dereferenceable(16) %m_origin)
  ret void
}

; Function Attrs: mustprogress nounwind uwtable
define linkonce_odr dso_local void @_ZN18btTriangleCallbackC2Ev(ptr noundef nonnull align 8 dereferenceable(8) %this) unnamed_addr #1 comdat align 2 {
entry:
  %this.addr = alloca ptr, align 8
  store ptr %this, ptr %this.addr, align 8
  %this1 = load ptr, ptr %this.addr, align 8
  store ptr getelementptr inbounds ({ [5 x ptr] }, ptr @_ZTV18btTriangleCallback, i32 0, i32 0, i32 2), ptr %this1, align 8
  ret void
}

; Function Attrs: mustprogress uwtable
define dso_local void @_ZN28btTriangleConvexcastCallbackC2EPK13btConvexShapeRK11btTransformS5_S5_f(ptr noundef nonnull align 8 dereferenceable(220) %this, ptr noundef %convexShape, ptr noundef nonnull align 4 dereferenceable(64) %convexShapeFrom, ptr noundef nonnull align 4 dereferenceable(64) %convexShapeTo, ptr noundef nonnull align 4 dereferenceable(64) %triangleToWorld, float noundef %triangleCollisionMargin) unnamed_addr #4 align 2 personality ptr @__gxx_personality_v0 {
entry:
  %this.addr = alloca ptr, align 8
  %convexShape.addr = alloca ptr, align 8
  %convexShapeFrom.addr = alloca ptr, align 8
  %convexShapeTo.addr = alloca ptr, align 8
  %triangleToWorld.addr = alloca ptr, align 8
  %triangleCollisionMargin.addr = alloca float, align 4
  %exn.slot = alloca ptr, align 8
  %ehselector.slot = alloca i32, align 4
  store ptr %this, ptr %this.addr, align 8
  store ptr %convexShape, ptr %convexShape.addr, align 8
  store ptr %convexShapeFrom, ptr %convexShapeFrom.addr, align 8
  store ptr %convexShapeTo, ptr %convexShapeTo.addr, align 8
  store ptr %triangleToWorld, ptr %triangleToWorld.addr, align 8
  store float %triangleCollisionMargin, ptr %triangleCollisionMargin.addr, align 4
  %this1 = load ptr, ptr %this.addr, align 8
  call void @_ZN18btTriangleCallbackC2Ev(ptr noundef nonnull align 8 dereferenceable(8) %this1) #11
  store ptr getelementptr inbounds ({ [6 x ptr] }, ptr @_ZTV28btTriangleConvexcastCallback, i32 0, i32 0, i32 2), ptr %this1, align 8
  %m_convexShapeFrom = getelementptr inbounds %class.btTriangleConvexcastCallback, ptr %this1, i32 0, i32 2
  invoke void @_ZN11btTransformC2Ev(ptr noundef nonnull align 4 dereferenceable(64) %m_convexShapeFrom)
          to label %invoke.cont unwind label %lpad

invoke.cont:                                      ; preds = %entry
  %m_convexShapeTo = getelementptr inbounds %class.btTriangleConvexcastCallback, ptr %this1, i32 0, i32 3
  invoke void @_ZN11btTransformC2Ev(ptr noundef nonnull align 4 dereferenceable(64) %m_convexShapeTo)
          to label %invoke.cont2 unwind label %lpad

invoke.cont2:                                     ; preds = %invoke.cont
  %m_triangleToWorld = getelementptr inbounds %class.btTriangleConvexcastCallback, ptr %this1, i32 0, i32 4
  invoke void @_ZN11btTransformC2Ev(ptr noundef nonnull align 4 dereferenceable(64) %m_triangleToWorld)
          to label %invoke.cont3 unwind label %lpad

invoke.cont3:                                     ; preds = %invoke.cont2
  %0 = load ptr, ptr %convexShape.addr, align 8
  %m_convexShape = getelementptr inbounds %class.btTriangleConvexcastCallback, ptr %this1, i32 0, i32 1
  store ptr %0, ptr %m_convexShape, align 8
  %1 = load ptr, ptr %convexShapeFrom.addr, align 8
  %m_convexShapeFrom4 = getelementptr inbounds %class.btTriangleConvexcastCallback, ptr %this1, i32 0, i32 2
  %call = invoke noundef nonnull align 4 dereferenceable(64) ptr @_ZN11btTransformaSERKS_(ptr noundef nonnull align 4 dereferenceable(64) %m_convexShapeFrom4, ptr noundef nonnull align 4 dereferenceable(64) %1)
          to label %invoke.cont5 unwind label %lpad

invoke.cont5:                                     ; preds = %invoke.cont3
  %2 = load ptr, ptr %convexShapeTo.addr, align 8
  %m_convexShapeTo6 = getelementptr inbounds %class.btTriangleConvexcastCallback, ptr %this1, i32 0, i32 3
  %call8 = invoke noundef nonnull align 4 dereferenceable(64) ptr @_ZN11btTransformaSERKS_(ptr noundef nonnull align 4 dereferenceable(64) %m_convexShapeTo6, ptr noundef nonnull align 4 dereferenceable(64) %2)
          to label %invoke.cont7 unwind label %lpad

invoke.cont7:                                     ; preds = %invoke.cont5
  %3 = load ptr, ptr %triangleToWorld.addr, align 8
  %m_triangleToWorld9 = getelementptr inbounds %class.btTriangleConvexcastCallback, ptr %this1, i32 0, i32 4
  %call11 = invoke noundef nonnull align 4 dereferenceable(64) ptr @_ZN11btTransformaSERKS_(ptr noundef nonnull align 4 dereferenceable(64) %m_triangleToWorld9, ptr noundef nonnull align 4 dereferenceable(64) %3)
          to label %invoke.cont10 unwind label %lpad

invoke.cont10:                                    ; preds = %invoke.cont7
  %m_hitFraction = getelementptr inbounds %class.btTriangleConvexcastCallback, ptr %this1, i32 0, i32 5
  store float 1.000000e+00, ptr %m_hitFraction, align 8
  %4 = load float, ptr %triangleCollisionMargin.addr, align 4
  %m_triangleCollisionMargin = getelementptr inbounds %class.btTriangleConvexcastCallback, ptr %this1, i32 0, i32 6
  store float %4, ptr %m_triangleCollisionMargin, align 4
  %m_allowedPenetration = getelementptr inbounds %class.btTriangleConvexcastCallback, ptr %this1, i32 0, i32 7
  store float 0.000000e+00, ptr %m_allowedPenetration, align 8
  ret void

lpad:                                             ; preds = %invoke.cont7, %invoke.cont5, %invoke.cont3, %invoke.cont2, %invoke.cont, %entry
  %5 = landingpad { ptr, i32 }
          cleanup
  %6 = extractvalue { ptr, i32 } %5, 0
  store ptr %6, ptr %exn.slot, align 8
  %7 = extractvalue { ptr, i32 } %5, 1
  store i32 %7, ptr %ehselector.slot, align 4
  call void @_ZN18btTriangleCallbackD2Ev(ptr noundef nonnull align 8 dereferenceable(8) %this1) #11
  br label %eh.resume

eh.resume:                                        ; preds = %lpad
  %exn = load ptr, ptr %exn.slot, align 8
  %sel = load i32, ptr %ehselector.slot, align 4
  %lpad.val = insertvalue { ptr, i32 } poison, ptr %exn, 0
  %lpad.val12 = insertvalue { ptr, i32 } %lpad.val, i32 %sel, 1
  resume { ptr, i32 } %lpad.val12
}