; Function Attrs: mustprogress nofree norecurse nosync nounwind willreturn memory(argmem: readwrite) uwtable
define dso_local void @_ZN28btTriangleConvexcastCallbackC2EPK13btConvexShapeRK11btTransformS5_S5_f(ptr nocapture noundef nonnull writeonly align 8 dereferenceable(220) %this, ptr noundef %convexShape, ptr nocapture noundef nonnull readonly align 4 dereferenceable(64) %convexShapeFrom, ptr nocapture noundef nonnull readonly align 4 dereferenceable(64) %convexShapeTo, ptr nocapture noundef nonnull readonly align 4 dereferenceable(64) %triangleToWorld, float noundef %triangleCollisionMargin) unnamed_addr #0 align 2 personality ptr @__gxx_personality_v0 {
invoke.cont10:
  store ptr getelementptr inbounds ({ [6 x ptr] }, ptr @_ZTV28btTriangleConvexcastCallback, i64 0, i32 0, i64 2), ptr %this, align 8
  %m_convexShapeFrom = getelementptr inbounds i8, ptr %this, i64 16
  %m_convexShapeTo = getelementptr inbounds i8, ptr %this, i64 80
  %m_triangleToWorld = getelementptr inbounds i8, ptr %this, i64 144
  %m_convexShape = getelementptr inbounds i8, ptr %this, i64 8
  store ptr %convexShape, ptr %m_convexShape, align 8
  tail call void @llvm.memcpy.p0.p0.i64(ptr noundef nonnull align 8 dereferenceable(16) %m_convexShapeFrom, ptr noundef nonnull align 4 dereferenceable(16) %convexShapeFrom, i64 16, i1 false)
  %arrayidx5.i.i = getelementptr inbounds i8, ptr %convexShapeFrom, i64 16
  %arrayidx7.i.i = getelementptr inbounds i8, ptr %this, i64 32
  tail call void @llvm.memcpy.p0.p0.i64(ptr noundef nonnull align 8 dereferenceable(16) %arrayidx7.i.i, ptr noundef nonnull align 4 dereferenceable(16) %arrayidx5.i.i, i64 16, i1 false)
  %arrayidx9.i.i = getelementptr inbounds i8, ptr %convexShapeFrom, i64 32
  %arrayidx11.i.i = getelementptr inbounds i8, ptr %this, i64 48
  tail call void @llvm.memcpy.p0.p0.i64(ptr noundef nonnull align 8 dereferenceable(16) %arrayidx11.i.i, ptr noundef nonnull align 4 dereferenceable(16) %arrayidx9.i.i, i64 16, i1 false)
  %m_origin.i = getelementptr inbounds i8, ptr %convexShapeFrom, i64 48
  %m_origin3.i = getelementptr inbounds i8, ptr %this, i64 64
  tail call void @llvm.memcpy.p0.p0.i64(ptr noundef nonnull align 8 dereferenceable(16) %m_origin3.i, ptr noundef nonnull align 4 dereferenceable(16) %m_origin.i, i64 16, i1 false)
  tail call void @llvm.memcpy.p0.p0.i64(ptr noundef nonnull align 8 dereferenceable(16) %m_convexShapeTo, ptr noundef nonnull align 4 dereferenceable(16) %convexShapeTo, i64 16, i1 false)
  %arrayidx5.i.i1 = getelementptr inbounds i8, ptr %convexShapeTo, i64 16
  %arrayidx7.i.i2 = getelementptr inbounds i8, ptr %this, i64 96
  tail call void @llvm.memcpy.p0.p0.i64(ptr noundef nonnull align 8 dereferenceable(16) %arrayidx7.i.i2, ptr noundef nonnull align 4 dereferenceable(16) %arrayidx5.i.i1, i64 16, i1 false)
  %arrayidx9.i.i3 = getelementptr inbounds i8, ptr %convexShapeTo, i64 32
  %arrayidx11.i.i4 = getelementptr inbounds i8, ptr %this, i64 112
  tail call void @llvm.memcpy.p0.p0.i64(ptr noundef nonnull align 8 dereferenceable(16) %arrayidx11.i.i4, ptr noundef nonnull align 4 dereferenceable(16) %arrayidx9.i.i3, i64 16, i1 false)
  %m_origin.i5 = getelementptr inbounds i8, ptr %convexShapeTo, i64 48
  %m_origin3.i6 = getelementptr inbounds i8, ptr %this, i64 128
  tail call void @llvm.memcpy.p0.p0.i64(ptr noundef nonnull align 8 dereferenceable(16) %m_origin3.i6, ptr noundef nonnull align 4 dereferenceable(16) %m_origin.i5, i64 16, i1 false)
  tail call void @llvm.memcpy.p0.p0.i64(ptr noundef nonnull align 8 dereferenceable(16) %m_triangleToWorld, ptr noundef nonnull align 4 dereferenceable(16) %triangleToWorld, i64 16, i1 false)
  %arrayidx5.i.i7 = getelementptr inbounds i8, ptr %triangleToWorld, i64 16
  %arrayidx7.i.i8 = getelementptr inbounds i8, ptr %this, i64 160
  tail call void @llvm.memcpy.p0.p0.i64(ptr noundef nonnull align 8 dereferenceable(16) %arrayidx7.i.i8, ptr noundef nonnull align 4 dereferenceable(16) %arrayidx5.i.i7, i64 16, i1 false)
  %arrayidx9.i.i9 = getelementptr inbounds i8, ptr %triangleToWorld, i64 32
  %arrayidx11.i.i10 = getelementptr inbounds i8, ptr %this, i64 176
  tail call void @llvm.memcpy.p0.p0.i64(ptr noundef nonnull align 8 dereferenceable(16) %arrayidx11.i.i10, ptr noundef nonnull align 4 dereferenceable(16) %arrayidx9.i.i9, i64 16, i1 false)
  %m_origin.i11 = getelementptr inbounds i8, ptr %triangleToWorld, i64 48
  %m_origin3.i12 = getelementptr inbounds i8, ptr %this, i64 192
  tail call void @llvm.memcpy.p0.p0.i64(ptr noundef nonnull align 8 dereferenceable(16) %m_origin3.i12, ptr noundef nonnull align 4 dereferenceable(16) %m_origin.i11, i64 16, i1 false)
  %m_hitFraction = getelementptr inbounds i8, ptr %this, i64 208
  store float 1.000000e+00, ptr %m_hitFraction, align 8
  %m_triangleCollisionMargin = getelementptr inbounds i8, ptr %this, i64 212
  store float %triangleCollisionMargin, ptr %m_triangleCollisionMargin, align 4
  %m_allowedPenetration = getelementptr inbounds i8, ptr %this, i64 216
  store float 0.000000e+00, ptr %m_allowedPenetration, align 8
  ret void
}